; Function Attrs: null_pointer_is_valid sspstrong uwtable
define internal void @lbtrm_tag_mc_address_low_set_cb(ptr noundef captures(none) initializes((16, 20)) %0, ptr noundef %1, i32 noundef %2, ptr readnone captures(none) %3, ptr readnone captures(none) %4) #0 {
  %6 = alloca i32, align 4
  call void @llvm.lifetime.start.p0(i64 4, ptr nonnull %6) #10
  %7 = zext i32 %2 to i64
  %8 = tail call noalias ptr @g_strndup(ptr noundef %1, i64 noundef %7)
  %9 = getelementptr inbounds nuw i8, ptr %0, i64 8
  %10 = load ptr, ptr %9, align 8
  tail call void @g_free(ptr noundef %10)
  store ptr %8, ptr %9, align 8
  %11 = call zeroext i1 @ws_inet_pton4(ptr noundef %8, ptr noundef nonnull %6)
  %12 = load i32, ptr %6, align 4
  %13 = call i32 asm "bswapl $0", "=r,0,~{dirflag},~{fpsr},~{flags}"(i32 %12) #11, !srcloc !22
  %14 = getelementptr inbounds nuw i8, ptr %0, i64 16
  store i32 %13, ptr %14, align 8
  call void @llvm.lifetime.end.p0(i64 4, ptr nonnull %6) #10
  ret void
}